target datalayout = "e-m:e-p270:32:32-p271:32:32-p272:64:64-i64:64-i128:128-f80:128-n8:16:32:64-S128"
target triple = "x86_64-pc-linux-gnu"

%struct.print_field = type { i32, ptr, ptr, i16 }

@print_fields_parsable_print = dso_local global i32 0, align 4
@fields_delimiter = dso_local global ptr null, align 8
@.str = private unnamed_addr constant [3 x i8] c"%s\00", align 1
@.str.1 = private unnamed_addr constant [5 x i8] c"%s%s\00", align 1
@.str.2 = private unnamed_addr constant [4 x i8] c"%s|\00", align 1
@.str.7 = private unnamed_addr constant [2 x i8] c" \00", align 1
@.str.8 = private unnamed_addr constant [2 x i8] c"|\00", align 1
@.str.9 = private unnamed_addr constant [5 x i8] c"%*s \00", align 1
@.str.29 = private unnamed_addr constant [6 x i8] c"%-*s \00", align 1

; Function Attrs: nounwind uwtable
define dso_local void @print_fields_time_from_mins(ptr noundef %0, ptr noundef %1, i32 noundef %2) #0 {
  %4 = alloca ptr, align 8
  %5 = alloca ptr, align 8
  %6 = alloca i32, align 4
  %7 = alloca i32, align 4
  %8 = alloca i32, align 4
  %9 = alloca [32 x i8], align 16
  store ptr %0, ptr %4, align 8
  store ptr %1, ptr %5, align 8
  store i32 %2, ptr %6, align 4
  call void @llvm.lifetime.start.p0(i64 4, ptr %7) #10
  %10 = load ptr, ptr %4, align 8
  %11 = getelementptr inbounds nuw %struct.print_field, ptr %10, i32 0, i32 0
  %12 = load i32, ptr %11, align 8
  %13 = call i32 @llvm.abs.i32(i32 %12, i1 true)
  store i32 %13, ptr %7, align 4
  call void @llvm.lifetime.start.p0(i64 4, ptr %8) #10
  store i32 -2, ptr %8, align 4
  %14 = load ptr, ptr %5, align 8
  %15 = icmp ne ptr %14, null
  br i1 %15, label %16, label %19

16:                                               ; preds = %3
  %17 = load ptr, ptr %5, align 8
  %18 = load i32, ptr %17, align 4
  store i32 %18, ptr %8, align 4
  br label %19

19:                                               ; preds = %16, %3
  %20 = load i32, ptr %8, align 4
  %21 = icmp eq i32 %20, -2
  br i1 %21, label %25, label %22

22:                                               ; preds = %19
  %23 = load i32, ptr %8, align 4
  %24 = icmp eq i32 %23, -1
  br i1 %24, label %25, label %57

25:                                               ; preds = %22, %19
  %26 = load i32, ptr @print_fields_parsable_print, align 4
  %27 = icmp eq i32 %26, 2
  br i1 %27, label %28, label %32

28:                                               ; preds = %25
  %29 = load i32, ptr %6, align 4
  %30 = icmp ne i32 %29, 0
  br i1 %30, label %31, label %32

31:                                               ; preds = %28
  br label %56

32:                                               ; preds = %28, %25
  %33 = load i32, ptr @print_fields_parsable_print, align 4
  %34 = icmp ne i32 %33, 0
  br i1 %34, label %35, label %40

35:                                               ; preds = %32
  %36 = load ptr, ptr @fields_delimiter, align 8
  %37 = icmp ne ptr %36, null
  br i1 %37, label %40, label %38

38:                                               ; preds = %35
  %39 = call i32 (ptr, ...) @printf(ptr noundef @.str.8)
  br label %55

40:                                               ; preds = %35, %32
  %41 = load i32, ptr @print_fields_parsable_print, align 4
  %42 = icmp ne i32 %41, 0
  br i1 %42, label %43, label %49

43:                                               ; preds = %40
  %44 = load ptr, ptr @fields_delimiter, align 8
  %45 = icmp ne ptr %44, null
  br i1 %45, label %46, label %49

46:                                               ; preds = %43
  %47 = load ptr, ptr @fields_delimiter, align 8
  %48 = call i32 (ptr, ...) @printf(ptr noundef @.str, ptr noundef %47)
  br label %54

49:                                               ; preds = %43, %40
  %50 = load ptr, ptr %4, align 8
  %51 = getelementptr inbounds nuw %struct.print_field, ptr %50, i32 0, i32 0
  %52 = load i32, ptr %51, align 8
  %53 = call i32 (ptr, ...) @printf(ptr noundef @.str.9, i32 noundef %52, ptr noundef @.str.7)
  br label %54

54:                                               ; preds = %49, %46
  br label %55

55:                                               ; preds = %54, %38
  br label %56

56:                                               ; preds = %55, %31
  br label %107

57:                                               ; preds = %22
  call void @llvm.lifetime.start.p0(i64 32, ptr %9) #10
  %58 = load i32, ptr %8, align 4
  %59 = zext i32 %58 to i64
  %60 = trunc i64 %59 to i32
  %61 = getelementptr inbounds [32 x i8], ptr %9, i64 0, i64 0
  call void @mins2time_str(i32 noundef %60, ptr noundef %61, i32 noundef 32)
  %62 = load i32, ptr @print_fields_parsable_print, align 4
  %63 = icmp eq i32 %62, 2
  br i1 %63, label %64, label %70

64:                                               ; preds = %57
  %65 = load i32, ptr %6, align 4
  %66 = icmp ne i32 %65, 0
  br i1 %66, label %67, label %70

67:                                               ; preds = %64
  %68 = getelementptr inbounds [32 x i8], ptr %9, i64 0, i64 0
  %69 = call i32 (ptr, ...) @printf(ptr noundef @.str, ptr noundef %68)
  br label %106

70:                                               ; preds = %64, %57
  %71 = load i32, ptr @print_fields_parsable_print, align 4
  %72 = icmp ne i32 %71, 0
  br i1 %72, label %73, label %79

73:                                               ; preds = %70
  %74 = load ptr, ptr @fields_delimiter, align 8
  %75 = icmp ne ptr %74, null
  br i1 %75, label %79, label %76

76:                                               ; preds = %73
  %77 = getelementptr inbounds [32 x i8], ptr %9, i64 0, i64 0
  %78 = call i32 (ptr, ...) @printf(ptr noundef @.str.2, ptr noundef %77)
  br label %105

79:                                               ; preds = %73, %70
  %80 = load i32, ptr @print_fields_parsable_print, align 4
  %81 = icmp ne i32 %80, 0
  br i1 %81, label %82, label %89

82:                                               ; preds = %79
  %83 = load ptr, ptr @fields_delimiter, align 8
  %84 = icmp ne ptr %83, null
  br i1 %84, label %85, label %89

85:                                               ; preds = %82
  %86 = getelementptr inbounds [32 x i8], ptr %9, i64 0, i64 0
  %87 = load ptr, ptr @fields_delimiter, align 8
  %88 = call i32 (ptr, ...) @printf(ptr noundef @.str.1, ptr noundef %86, ptr noundef %87)
  br label %104

89:                                               ; preds = %82, %79
  %90 = load ptr, ptr %4, align 8
  %91 = getelementptr inbounds nuw %struct.print_field, ptr %90, i32 0, i32 0
  %92 = load i32, ptr %91, align 8
  %93 = load i32, ptr %7, align 4
  %94 = icmp eq i32 %92, %93
  br i1 %94, label %95, label %99

95:                                               ; preds = %89
  %96 = load i32, ptr %7, align 4
  %97 = getelementptr inbounds [32 x i8], ptr %9, i64 0, i64 0
  %98 = call i32 (ptr, ...) @printf(ptr noundef @.str.9, i32 noundef %96, ptr noundef %97)
  br label %103

99:                                               ; preds = %89
  %100 = load i32, ptr %7, align 4
  %101 = getelementptr inbounds [32 x i8], ptr %9, i64 0, i64 0
  %102 = call i32 (ptr, ...) @printf(ptr noundef @.str.29, i32 noundef %100, ptr noundef %101)
  br label %103

103:                                              ; preds = %99, %95
  br label %104

104:                                              ; preds = %103, %85
  br label %105

105:                                              ; preds = %104, %76
  br label %106

106:                                              ; preds = %105, %67
  call void @llvm.lifetime.end.p0(i64 32, ptr %9) #10
  br label %107

107:                                              ; preds = %106, %56
  call void @llvm.lifetime.end.p0(i64 4, ptr %8) #10
  call void @llvm.lifetime.end.p0(i64 4, ptr %7) #10
  ret void
}